; Function Attrs: mustprogress uwtable
define internal void @_ZL16tcp_handle_errorPvN4absl12lts_202308026StatusE(ptr noundef %arg, ptr noundef %error) #6 personality ptr @__gxx_personality_v0 {
entry:
  %ref.tmp = alloca %"class.std::__cxx11::basic_string", align 8
  %0 = load atomic i8, ptr getelementptr inbounds (%"class.grpc_core::TraceFlag", ptr @grpc_tcp_trace, i64 0, i32 2, i32 0, i32 0) monotonic, align 8
  %1 = and i8 %0, 1
  %tobool.i.i.i.not = icmp eq i8 %1, 0
  br i1 %tobool.i.i.i.not, label %if.end, label %if.then

if.then:                                          ; preds = %entry
  call void @_ZN9grpc_core14StatusToStringB5cxx11ERKN4absl12lts_202308026StatusE(ptr nonnull sret(%"class.std::__cxx11::basic_string") align 8 %ref.tmp, ptr noundef nonnull align 8 dereferenceable(8) %error)
  %call1 = call noundef ptr @_ZNKSt7__cxx1112basic_stringIcSt11char_traitsIcESaIcEE5c_strEv(ptr noundef nonnull align 8 dereferenceable(32) %ref.tmp) #24
  invoke void (ptr, i32, i32, ptr, ...) @gpr_log(ptr noundef nonnull @.str, i32 noundef 1460, i32 noundef 1, ptr noundef nonnull @.str.61, ptr noundef %arg, ptr noundef %call1)
          to label %invoke.cont unwind label %lpad

invoke.cont:                                      ; preds = %if.then
  call void @_ZNSt7__cxx1112basic_stringIcSt11char_traitsIcESaIcEED1Ev(ptr noundef nonnull align 8 dereferenceable(32) %ref.tmp) #24
  br label %if.end

lpad:                                             ; preds = %if.then
  %2 = landingpad { ptr, i32 }
          cleanup
  call void @_ZNSt7__cxx1112basic_stringIcSt11char_traitsIcESaIcEED1Ev(ptr noundef nonnull align 8 dereferenceable(32) %ref.tmp) #24
  resume { ptr, i32 } %2

if.end:                                           ; preds = %invoke.cont, %entry
  %3 = load i64, ptr %error, align 8
  %cmp.i = icmp eq i64 %3, 0
  br i1 %cmp.i, label %lor.lhs.false, label %if.then3

lor.lhs.false:                                    ; preds = %if.end
  %stop_error_notification = getelementptr inbounds i8, ptr %arg, i64 632
  %4 = load atomic i64, ptr %stop_error_notification acquire, align 8
  %tobool.not = icmp eq i64 %4, 0
  br i1 %tobool.not, label %if.end4, label %if.then3

if.then3:                                         ; preds = %lor.lhs.false, %if.end
  call fastcc void @_ZL9tcp_unrefPN12_GLOBAL__N_18grpc_tcpE(ptr noundef %arg)
  br label %return

if.end4:                                          ; preds = %lor.lhs.false
  %call5 = call fastcc noundef zeroext i1 @_ZL14process_errorsPN12_GLOBAL__N_18grpc_tcpE(ptr noundef nonnull %arg)
  br i1 %call5, label %if.end9, label %if.then7

if.then7:                                         ; preds = %if.end4
  %em_fd = getelementptr inbounds i8, ptr %arg, i64 8
  %5 = load ptr, ptr %em_fd, align 8
  call void @_Z20grpc_fd_set_readableP7grpc_fd(ptr noundef %5)
  %6 = load ptr, ptr %em_fd, align 8
  call void @_Z20grpc_fd_set_writableP7grpc_fd(ptr noundef %6)
  br label %if.end9

if.end9:                                          ; preds = %if.then7, %if.end4
  %em_fd10 = getelementptr inbounds i8, ptr %arg, i64 8
  %7 = load ptr, ptr %em_fd10, align 8
  %error_closure = getelementptr inbounds i8, ptr %arg, i64 456
  call void @_Z23grpc_fd_notify_on_errorP7grpc_fdP12grpc_closure(ptr noundef %7, ptr noundef nonnull %error_closure)
  br label %return

return:                                           ; preds = %if.end9, %if.then3
  ret void
}